target datalayout = "e-m:e-p270:32:32-p271:32:32-p272:64:64-i64:64-i128:128-f80:128-n8:16:32:64-S128"
target triple = "x86_64-pc-linux-gnu"

; Function Attrs: cold nounwind optsize uwtable
define internal ptr @build_vlc(ptr noundef %0, ptr noundef %1, ptr noundef %2) #0 {
  %4 = alloca ptr, align 8
  %5 = alloca ptr, align 8
  %6 = alloca ptr, align 8
  %7 = alloca [1370 x i8], align 16
  %8 = alloca ptr, align 8
  %9 = alloca i32, align 4
  %10 = alloca i32, align 4
  %11 = alloca i32, align 4
  store ptr %0, ptr %4, align 8, !tbaa !93
  store ptr %1, ptr %5, align 8, !tbaa !60
  store ptr %2, ptr %6, align 8, !tbaa !95
  call void @llvm.lifetime.start.p0(i64 1370, ptr %7) #11
  call void @llvm.lifetime.start.p0(i64 8, ptr %8) #11
  %12 = load ptr, ptr %6, align 8, !tbaa !95
  %13 = load ptr, ptr %12, align 8, !tbaa !87
  store ptr %13, ptr %8, align 8, !tbaa !87
  call void @llvm.lifetime.start.p0(i64 4, ptr %9) #11
  store i32 0, ptr %9, align 4, !tbaa !44
  call void @llvm.lifetime.start.p0(i64 4, ptr %10) #11
  store i32 0, ptr %10, align 4, !tbaa !44
  br label %14

14:                                               ; preds = %47, %3
  %15 = load i32, ptr %10, align 4, !tbaa !44
  %16 = icmp slt i32 %15, 16
  br i1 %16, label %18, label %17

17:                                               ; preds = %14
  call void @llvm.lifetime.end.p0(i64 4, ptr %10) #11
  br label %50

18:                                               ; preds = %14
  call void @llvm.lifetime.start.p0(i64 4, ptr %11) #11
  %19 = load ptr, ptr %5, align 8, !tbaa !60
  %20 = load i32, ptr %10, align 4, !tbaa !44
  %21 = sext i32 %20 to i64
  %22 = getelementptr inbounds i8, ptr %19, i64 %21
  %23 = load i8, ptr %22, align 1, !tbaa !33
  %24 = zext i8 %23 to i32
  store i32 %24, ptr %11, align 4, !tbaa !44
  %25 = load i32, ptr %11, align 4, !tbaa !44
  %26 = icmp eq i32 %25, 255
  br i1 %26, label %27, label %28

27:                                               ; preds = %18
  store i32 303, ptr %11, align 4, !tbaa !44
  br label %28

28:                                               ; preds = %27, %18
  %29 = load i32, ptr %9, align 4, !tbaa !44
  %30 = load i32, ptr %11, align 4, !tbaa !44
  %31 = add i32 %30, %29
  store i32 %31, ptr %11, align 4, !tbaa !44
  br label %32

32:                                               ; preds = %43, %28
  %33 = load i32, ptr %9, align 4, !tbaa !44
  %34 = load i32, ptr %11, align 4, !tbaa !44
  %35 = icmp ult i32 %33, %34
  br i1 %35, label %36, label %46

36:                                               ; preds = %32
  %37 = load i32, ptr %10, align 4, !tbaa !44
  %38 = add nsw i32 %37, 1
  %39 = trunc i32 %38 to i8
  %40 = load i32, ptr %9, align 4, !tbaa !44
  %41 = zext i32 %40 to i64
  %42 = getelementptr inbounds nuw [1370 x i8], ptr %7, i64 0, i64 %41
  store i8 %39, ptr %42, align 1, !tbaa !33
  br label %43

43:                                               ; preds = %36
  %44 = load i32, ptr %9, align 4, !tbaa !44
  %45 = add i32 %44, 1
  store i32 %45, ptr %9, align 4, !tbaa !44
  br label %32, !llvm.loop !97

46:                                               ; preds = %32
  call void @llvm.lifetime.end.p0(i64 4, ptr %11) #11
  br label %47

47:                                               ; preds = %46
  %48 = load i32, ptr %10, align 4, !tbaa !44
  %49 = add nsw i32 %48, 1
  store i32 %49, ptr %10, align 4, !tbaa !44
  br label %14, !llvm.loop !98

50:                                               ; preds = %17
  %51 = load i32, ptr %9, align 4, !tbaa !44
  %52 = load ptr, ptr %6, align 8, !tbaa !95
  %53 = load ptr, ptr %52, align 8, !tbaa !87
  %54 = zext i32 %51 to i64
  %55 = getelementptr inbounds nuw i16, ptr %53, i64 %54
  store ptr %55, ptr %52, align 8, !tbaa !87
  %56 = load ptr, ptr %4, align 8, !tbaa !93
  %57 = load i32, ptr %9, align 4, !tbaa !44
  %58 = getelementptr inbounds [1370 x i8], ptr %7, i64 0, i64 0
  %59 = load ptr, ptr %8, align 8, !tbaa !87
  %60 = call ptr @ff_vlc_init_tables_from_lengths(ptr noundef %56, i32 noundef 9, i32 noundef %57, ptr noundef %58, i32 noundef 1, ptr noundef %59, i32 noundef 2, i32 noundef 2, i32 noundef 0, i32 noundef 0)
  call void @llvm.lifetime.end.p0(i64 4, ptr %9) #11
  call void @llvm.lifetime.end.p0(i64 8, ptr %8) #11
  call void @llvm.lifetime.end.p0(i64 1370, ptr %7) #11
  ret ptr %60
}