; Function Attrs: cold nounwind optsize uwtable
define internal fastcc ptr @build_vlc(ptr noundef nonnull %0, ptr noundef readonly captures(none) %1, ptr noundef nonnull captures(none) %2) unnamed_addr #0 {
  %4 = alloca [1370 x i8], align 16
  call void @llvm.lifetime.start.p0(i64 1370, ptr nonnull %4) #13
  %5 = load ptr, ptr %2, align 8, !tbaa !102
  br label %10

6:                                                ; preds = %._crit_edge
  %7 = zext i32 %.1.lcssa to i64
  %8 = getelementptr inbounds nuw i16, ptr %5, i64 %7
  store ptr %8, ptr %2, align 8, !tbaa !102
  %9 = call ptr @ff_vlc_init_tables_from_lengths(ptr noundef nonnull %0, i32 noundef 9, i32 noundef %.1.lcssa, ptr noundef nonnull %4, i32 noundef 1, ptr noundef %5, i32 noundef 2, i32 noundef 2, i32 noundef 0, i32 noundef 0) #13
  call void @llvm.lifetime.end.p0(i64 1370, ptr nonnull %4) #13
  ret ptr %9

10:                                               ; preds = %3, %._crit_edge
  %indvars.iv = phi i64 [ 0, %3 ], [ %indvars.iv.next, %._crit_edge ]
  %.01719 = phi i32 [ 0, %3 ], [ %.1.lcssa, %._crit_edge ]
  %11 = getelementptr inbounds nuw i8, ptr %1, i64 %indvars.iv
  %12 = load i8, ptr %11, align 1, !tbaa !29
  %13 = zext i8 %12 to i32
  %14 = icmp eq i8 %12, -1
  %spec.store.select = select i1 %14, i32 303, i32 %13
  %15 = add i32 %spec.store.select, %.01719
  %16 = icmp ult i32 %.01719, %15
  br i1 %16, label %.lr.ph, label %._crit_edge

.lr.ph:                                           ; preds = %10
  %17 = trunc i64 %indvars.iv to i8
  %18 = add nuw nsw i8 %17, 1
  %19 = zext i32 %.01719 to i64
  %scevgep = getelementptr i8, ptr %4, i64 %19
  %20 = add nsw i32 %spec.store.select, -1
  %21 = zext i32 %20 to i64
  %22 = add nuw nsw i64 %21, 1
  call void @llvm.memset.p0.i64(ptr noundef nonnull align 1 dereferenceable(1) %scevgep, i8 %18, i64 %22, i1 false), !tbaa !29
  %23 = add i32 %.01719, %spec.store.select
  br label %._crit_edge

._crit_edge:                                      ; preds = %.lr.ph, %10
  %.1.lcssa = phi i32 [ %.01719, %10 ], [ %23, %.lr.ph ]
  %indvars.iv.next = add nuw nsw i64 %indvars.iv, 1
  %exitcond.not = icmp eq i64 %indvars.iv.next, 16
  br i1 %exitcond.not, label %6, label %10, !llvm.loop !108
}